target datalayout = "e-m:e-p270:32:32-p271:32:32-p272:64:64-i64:64-i128:128-f80:128-n8:16:32:64-S128"
target triple = "x86_64-pc-linux-gnu"

%"class.Imath_2_5::Vec2.6" = type { float, float }
%"class.cv::ExrDecoder" = type { %"class.cv::BaseImageDecoder", ptr, i32, %"class.Imath_2_5::Box", i8, ptr, ptr, ptr, ptr, %"struct.Imf_2_5::Chromaticities", i32, i8, i8, i8, i8 }
%"class.cv::BaseImageDecoder" = type { ptr, i32, i32, i32, i32, %"class.std::__cxx11::basic_string", %"class.std::__cxx11::basic_string", %"class.cv::Mat", i8, i8, [6 x i8], %"class.cv::ExifReader" }
%"class.std::__cxx11::basic_string" = type { %"struct.std::__cxx11::basic_string<char>::_Alloc_hider", i64, %union.anon }
%"struct.std::__cxx11::basic_string<char>::_Alloc_hider" = type { ptr }
%union.anon = type { i64, [8 x i8] }
%"class.cv::Mat" = type { i32, i32, i32, i32, ptr, ptr, ptr, ptr, ptr, ptr, %"struct.cv::MatSize", %"struct.cv::MatStep" }
%"struct.cv::MatSize" = type { ptr }
%"struct.cv::MatStep" = type { ptr, [2 x i64] }
%"class.cv::ExifReader" = type <{ %"class.std::vector", %"class.std::map", i32, [4 x i8] }>
%"class.std::vector" = type { %"struct.std::_Vector_base" }
%"struct.std::_Vector_base" = type { %"struct.std::_Vector_base<unsigned char, std::allocator<unsigned char>>::_Vector_impl" }
%"struct.std::_Vector_base<unsigned char, std::allocator<unsigned char>>::_Vector_impl" = type { %"struct.std::_Vector_base<unsigned char, std::allocator<unsigned char>>::_Vector_impl_data" }
%"struct.std::_Vector_base<unsigned char, std::allocator<unsigned char>>::_Vector_impl_data" = type { ptr, ptr, ptr }
%"class.std::map" = type { %"class.std::_Rb_tree" }
%"class.std::_Rb_tree" = type { %"struct.std::_Rb_tree<int, std::pair<const int, cv::ExifEntry_t>, std::_Select1st<std::pair<const int, cv::ExifEntry_t>>, std::less<int>>::_Rb_tree_impl" }
%"struct.std::_Rb_tree<int, std::pair<const int, cv::ExifEntry_t>, std::_Select1st<std::pair<const int, cv::ExifEntry_t>>, std::less<int>>::_Rb_tree_impl" = type { %"struct.std::_Rb_tree_key_compare", %"struct.std::_Rb_tree_header" }
%"struct.std::_Rb_tree_key_compare" = type { %"struct.std::less" }
%"struct.std::less" = type { i8 }
%"struct.std::_Rb_tree_header" = type { %"struct.std::_Rb_tree_node_base", i64 }
%"struct.std::_Rb_tree_node_base" = type { i32, ptr, ptr, ptr }
%"class.Imath_2_5::Box" = type { %"class.Imath_2_5::Vec2", %"class.Imath_2_5::Vec2" }
%"class.Imath_2_5::Vec2" = type { i32, i32 }
%"struct.Imf_2_5::Chromaticities" = type { %"class.Imath_2_5::Vec2.6", %"class.Imath_2_5::Vec2.6", %"class.Imath_2_5::Vec2.6", %"class.Imath_2_5::Vec2.6" }

; Function Attrs: mustprogress nounwind uwtable
define hidden void @_ZN2cv10ExrDecoder9UpSampleYEPhiii(ptr noundef nonnull align 8 dereferenceable(376) %0, ptr noundef %1, i32 noundef %2, i32 noundef %3, i32 noundef %4) #5 align 2 {
  %6 = alloca ptr, align 8
  %7 = alloca ptr, align 8
  %8 = alloca i32, align 4
  %9 = alloca i32, align 4
  %10 = alloca i32, align 4
  %11 = alloca i32, align 4
  %12 = alloca i32, align 4
  %13 = alloca i32, align 4
  %14 = alloca i32, align 4
  store ptr %0, ptr %6, align 8
  store ptr %1, ptr %7, align 8
  store i32 %2, ptr %8, align 4
  store i32 %3, ptr %9, align 4
  store i32 %4, ptr %10, align 4
  %15 = load ptr, ptr %6, align 8
  %16 = getelementptr inbounds %"class.cv::BaseImageDecoder", ptr %15, i32 0, i32 2
  %17 = load i32, ptr %16, align 4
  %18 = load i32, ptr %10, align 4
  %19 = sub nsw i32 %17, %18
  store i32 %19, ptr %11, align 4
  %20 = getelementptr inbounds %"class.cv::BaseImageDecoder", ptr %15, i32 0, i32 2
  %21 = load i32, ptr %20, align 4
  %22 = load i32, ptr %10, align 4
  %23 = sub nsw i32 %21, %22
  store i32 %23, ptr %12, align 4
  br label %24

24:                                               ; preds = %128, %5
  %25 = load i32, ptr %11, align 4
  %26 = icmp sge i32 %25, 0
  br i1 %26, label %27, label %135

27:                                               ; preds = %24
  store i32 0, ptr %13, align 4
  br label %28

28:                                               ; preds = %124, %27
  %29 = load i32, ptr %13, align 4
  %30 = getelementptr inbounds %"class.cv::BaseImageDecoder", ptr %15, i32 0, i32 1
  %31 = load i32, ptr %30, align 8
  %32 = icmp slt i32 %29, %31
  br i1 %32, label %33, label %127

33:                                               ; preds = %28
  store i32 1, ptr %14, align 4
  br label %34

34:                                               ; preds = %120, %33
  %35 = load i32, ptr %14, align 4
  %36 = load i32, ptr %10, align 4
  %37 = icmp slt i32 %35, %36
  br i1 %37, label %38, label %123

38:                                               ; preds = %34
  %39 = getelementptr inbounds %"class.cv::ExrDecoder", ptr %15, i32 0, i32 11
  %40 = load i8, ptr %39, align 4
  %41 = trunc i8 %40 to i1
  br i1 %41, label %66, label %42

42:                                               ; preds = %38
  %43 = load ptr, ptr %7, align 8
  %44 = load i32, ptr %11, align 4
  %45 = load i32, ptr %9, align 4
  %46 = mul nsw i32 %44, %45
  %47 = load i32, ptr %13, align 4
  %48 = load i32, ptr %8, align 4
  %49 = mul nsw i32 %47, %48
  %50 = add nsw i32 %46, %49
  %51 = sext i32 %50 to i64
  %52 = getelementptr inbounds i8, ptr %43, i64 %51
  %53 = load i8, ptr %52, align 1
  %54 = load ptr, ptr %7, align 8
  %55 = load i32, ptr %12, align 4
  %56 = load i32, ptr %14, align 4
  %57 = add nsw i32 %55, %56
  %58 = load i32, ptr %9, align 4
  %59 = mul nsw i32 %57, %58
  %60 = load i32, ptr %13, align 4
  %61 = load i32, ptr %8, align 4
  %62 = mul nsw i32 %60, %61
  %63 = add nsw i32 %59, %62
  %64 = sext i32 %63 to i64
  %65 = getelementptr inbounds i8, ptr %54, i64 %64
  store i8 %53, ptr %65, align 1
  br label %119

66:                                               ; preds = %38
  %67 = getelementptr inbounds %"class.cv::ExrDecoder", ptr %15, i32 0, i32 2
  %68 = load i32, ptr %67, align 8
  %69 = icmp eq i32 %68, 2
  br i1 %69, label %70, label %94

70:                                               ; preds = %66
  %71 = load ptr, ptr %7, align 8
  %72 = load i32, ptr %11, align 4
  %73 = load i32, ptr %9, align 4
  %74 = mul nsw i32 %72, %73
  %75 = load i32, ptr %13, align 4
  %76 = load i32, ptr %8, align 4
  %77 = mul nsw i32 %75, %76
  %78 = add nsw i32 %74, %77
  %79 = sext i32 %78 to i64
  %80 = getelementptr inbounds float, ptr %71, i64 %79
  %81 = load float, ptr %80, align 4
  %82 = load ptr, ptr %7, align 8
  %83 = load i32, ptr %12, align 4
  %84 = load i32, ptr %14, align 4
  %85 = add nsw i32 %83, %84
  %86 = load i32, ptr %9, align 4
  %87 = mul nsw i32 %85, %86
  %88 = load i32, ptr %13, align 4
  %89 = load i32, ptr %8, align 4
  %90 = mul nsw i32 %88, %89
  %91 = add nsw i32 %87, %90
  %92 = sext i32 %91 to i64
  %93 = getelementptr inbounds float, ptr %82, i64 %92
  store float %81, ptr %93, align 4
  br label %118

94:                                               ; preds = %66
  %95 = load ptr, ptr %7, align 8
  %96 = load i32, ptr %11, align 4
  %97 = load i32, ptr %9, align 4
  %98 = mul nsw i32 %96, %97
  %99 = load i32, ptr %13, align 4
  %100 = load i32, ptr %8, align 4
  %101 = mul nsw i32 %99, %100
  %102 = add nsw i32 %98, %101
  %103 = sext i32 %102 to i64
  %104 = getelementptr inbounds i32, ptr %95, i64 %103
  %105 = load i32, ptr %104, align 4
  %106 = load ptr, ptr %7, align 8
  %107 = load i32, ptr %12, align 4
  %108 = load i32, ptr %14, align 4
  %109 = add nsw i32 %107, %108
  %110 = load i32, ptr %9, align 4
  %111 = mul nsw i32 %109, %110
  %112 = load i32, ptr %13, align 4
  %113 = load i32, ptr %8, align 4
  %114 = mul nsw i32 %112, %113
  %115 = add nsw i32 %111, %114
  %116 = sext i32 %115 to i64
  %117 = getelementptr inbounds i32, ptr %106, i64 %116
  store i32 %105, ptr %117, align 4
  br label %118

118:                                              ; preds = %94, %70
  br label %119

119:                                              ; preds = %118, %42
  br label %120

120:                                              ; preds = %119
  %121 = load i32, ptr %14, align 4
  %122 = add nsw i32 %121, 1
  store i32 %122, ptr %14, align 4
  br label %34, !llvm.loop !25

123:                                              ; preds = %34
  br label %124

124:                                              ; preds = %123
  %125 = load i32, ptr %13, align 4
  %126 = add nsw i32 %125, 1
  store i32 %126, ptr %13, align 4
  br label %28, !llvm.loop !26

127:                                              ; preds = %28
  br label %128

128:                                              ; preds = %127
  %129 = load i32, ptr %10, align 4
  %130 = load i32, ptr %11, align 4
  %131 = sub nsw i32 %130, %129
  store i32 %131, ptr %11, align 4
  %132 = load i32, ptr %10, align 4
  %133 = load i32, ptr %12, align 4
  %134 = sub nsw i32 %133, %132
  store i32 %134, ptr %12, align 4
  br label %24, !llvm.loop !27

135:                                              ; preds = %24
  ret void
}