; Function Attrs: mustprogress nofree norecurse nosync nounwind memory(argmem: readwrite) uwtable
define hidden void @_ZN2cv10ExrDecoder9UpSampleYEPhiii(ptr nocapture noundef nonnull readonly align 8 dereferenceable(376) %0, ptr nocapture noundef %1, i32 noundef %2, i32 noundef %3, i32 noundef %4) local_unnamed_addr #12 align 2 {
  %6 = getelementptr inbounds i8, ptr %0, i64 12
  %7 = load i32, ptr %6, align 4
  %8 = sub nsw i32 %7, %4
  %9 = icmp sgt i32 %8, -1
  br i1 %9, label %.preheader48.lr.ph, label %._crit_edge

.preheader48.lr.ph:                               ; preds = %5
  %10 = getelementptr inbounds i8, ptr %0, i64 8
  %11 = icmp slt i32 %4, 2
  %12 = getelementptr inbounds i8, ptr %0, i64 372
  %13 = getelementptr inbounds i8, ptr %0, i64 280
  %14 = load i32, ptr %10, align 8
  %15 = icmp sgt i32 %14, 0
  br i1 %15, label %.preheader48.preheader, label %._crit_edge

.preheader48.preheader:                           ; preds = %.preheader48.lr.ph
  %16 = sext i32 %3 to i64
  %17 = sext i32 %2 to i64
  %wide.trip.count = zext nneg i32 %4 to i64
  br label %.preheader48

.preheader48:                                     ; preds = %.preheader48.preheader, %._crit_edge51
  %18 = phi i32 [ %47, %._crit_edge51 ], [ %14, %.preheader48.preheader ]
  %.04653 = phi i32 [ %48, %._crit_edge51 ], [ %8, %.preheader48.preheader ]
  %19 = icmp slt i32 %18, 1
  %brmerge = or i1 %19, %11
  br i1 %brmerge, label %._crit_edge51, label %.preheader.us.preheader

.preheader.us.preheader:                          ; preds = %.preheader48
  %20 = mul nsw i32 %.04653, %3
  %21 = zext nneg i32 %.04653 to i64
  %22 = sext i32 %20 to i64
  br label %.preheader.us

.preheader.us:                                    ; preds = %.preheader.us.preheader, %._crit_edge.us
  %indvars.iv58 = phi i64 [ 0, %.preheader.us.preheader ], [ %indvars.iv.next59, %._crit_edge.us ]
  %23 = mul nsw i64 %indvars.iv58, %17
  %24 = add nsw i64 %23, %22
  %25 = getelementptr inbounds i8, ptr %1, i64 %24
  %26 = getelementptr inbounds i32, ptr %1, i64 %24
  %invariant.gep = getelementptr i8, ptr %1, i64 %23
  %invariant.gep61 = getelementptr i32, ptr %1, i64 %23
  %invariant.gep63 = getelementptr float, ptr %1, i64 %23
  br label %27

27:                                               ; preds = %.preheader.us, %43
  %indvars.iv = phi i64 [ 1, %.preheader.us ], [ %indvars.iv.next, %43 ]
  %28 = load i8, ptr %12, align 4
  %29 = trunc i8 %28 to i1
  br i1 %29, label %34, label %30

30:                                               ; preds = %27
  %31 = load i8, ptr %25, align 1
  %32 = add nuw nsw i64 %indvars.iv, %21
  %33 = mul nsw i64 %32, %16
  %gep = getelementptr i8, ptr %invariant.gep, i64 %33
  store i8 %31, ptr %gep, align 1
  br label %43

34:                                               ; preds = %27
  %35 = load i32, ptr %13, align 8
  %36 = icmp eq i32 %35, 2
  %37 = add nuw nsw i64 %indvars.iv, %21
  %38 = mul nsw i64 %37, %16
  br i1 %36, label %41, label %39

39:                                               ; preds = %34
  %40 = load i32, ptr %26, align 4
  %gep62 = getelementptr i32, ptr %invariant.gep61, i64 %38
  store i32 %40, ptr %gep62, align 4
  br label %43

41:                                               ; preds = %34
  %42 = load float, ptr %26, align 4
  %gep64 = getelementptr float, ptr %invariant.gep63, i64 %38
  store float %42, ptr %gep64, align 4
  br label %43

43:                                               ; preds = %41, %39, %30
  %indvars.iv.next = add nuw nsw i64 %indvars.iv, 1
  %exitcond.not = icmp eq i64 %indvars.iv.next, %wide.trip.count
  br i1 %exitcond.not, label %._crit_edge.us, label %27, !llvm.loop !16

._crit_edge.us:                                   ; preds = %43
  %indvars.iv.next59 = add nuw nsw i64 %indvars.iv58, 1
  %44 = load i32, ptr %10, align 8
  %45 = sext i32 %44 to i64
  %46 = icmp slt i64 %indvars.iv.next59, %45
  br i1 %46, label %.preheader.us, label %._crit_edge51, !llvm.loop !17

._crit_edge51:                                    ; preds = %._crit_edge.us, %.preheader48
  %47 = phi i32 [ %18, %.preheader48 ], [ %44, %._crit_edge.us ]
  %48 = sub nsw i32 %.04653, %4
  %49 = icmp sgt i32 %48, -1
  br i1 %49, label %.preheader48, label %._crit_edge, !llvm.loop !18

._crit_edge:                                      ; preds = %._crit_edge51, %.preheader48.lr.ph, %5
  ret void
}